target datalayout = "e-m:e-p270:32:32-p271:32:32-p272:64:64-i64:64-i128:128-f80:128-n8:16:32:64-S128"
target triple = "x86_64-pc-linux-gnu"

%"class.std::__cxx11::basic_string" = type { %"struct.std::__cxx11::basic_string<char>::_Alloc_hider", i64, %union.anon }
%"struct.std::__cxx11::basic_string<char>::_Alloc_hider" = type { ptr }
%union.anon = type { i64, [8 x i8] }
%"class.mu::ParserError" = type { %"class.std::__cxx11::basic_string", %"class.std::__cxx11::basic_string", %"class.std::__cxx11::basic_string", i32, i32, ptr }
%class.ParserTag = type { ptr, %"class.mu::ParserError", ptr, i8, i32 }

@_ZTIN2mu11ParserErrorE = linkonce_odr constant { ptr, ptr } { ptr getelementptr inbounds (ptr, ptr @_ZTVN10__cxxabiv117__class_type_infoE, i64 2), ptr @_ZTSN2mu11ParserErrorE }, comdat, align 8

; Function Attrs: inlinehint mustprogress nounwind uwtable
define linkonce_odr noundef ptr @_Z8AsParserPv(ptr noundef %0) #10 comdat {
  %2 = alloca ptr, align 8
  store ptr %0, ptr %2, align 8, !tbaa !32
  %3 = load ptr, ptr %2, align 8, !tbaa !32
  %4 = getelementptr inbounds nuw %class.ParserTag, ptr %3, i32 0, i32 0
  %5 = load ptr, ptr %4, align 8, !tbaa !47
  ret ptr %5
}

; Function Attrs: mustprogress uwtable
define void @mupSetThousandsSep(ptr noundef %0, i8 noundef signext %1) #6 personality ptr @__gxx_personality_v0 {
  %3 = alloca ptr, align 8
  %4 = alloca i8, align 1
  %5 = alloca ptr, align 8
  %6 = alloca ptr, align 8
  %7 = alloca i32, align 4
  %8 = alloca ptr, align 8
  %9 = alloca %"class.mu::ParserError", align 8
  %10 = alloca ptr, align 8
  %11 = alloca ptr, align 8
  store ptr %0, ptr %3, align 8, !tbaa !32
  store i8 %1, ptr %4, align 1, !tbaa !25
  call void @llvm.lifetime.start.p0(i64 8, ptr %5) #3
  %12 = load ptr, ptr %3, align 8, !tbaa !32
  %13 = call noundef ptr @_Z8AsParserPv(ptr noundef %12)
  store ptr %13, ptr %5, align 8, !tbaa !33
  %14 = load ptr, ptr %5, align 8, !tbaa !33
  %15 = load i8, ptr %4, align 1, !tbaa !25
  invoke void @_ZN2mu10ParserBase15SetThousandsSepEc(ptr noundef nonnull align 8 dereferenceable(596) %14, i8 noundef signext %15)
          to label %16 unwind label %17

16:                                               ; preds = %2
  call void @llvm.lifetime.end.p0(i64 8, ptr %5) #3
  br label %88

17:                                               ; preds = %2
  %18 = landingpad { ptr, i32 }
          catch ptr @_ZTIN2mu11ParserErrorE
          catch ptr null
  %19 = extractvalue { ptr, i32 } %18, 0
  store ptr %19, ptr %6, align 8
  %20 = extractvalue { ptr, i32 } %18, 1
  store i32 %20, ptr %7, align 4
  call void @llvm.lifetime.end.p0(i64 8, ptr %5) #3
  br label %21

21:                                               ; preds = %17
  %22 = load i32, ptr %7, align 4
  %23 = call i32 @llvm.eh.typeid.for.p0(ptr @_ZTIN2mu11ParserErrorE) #3
  %24 = icmp eq i32 %22, %23
  br i1 %24, label %25, label %46

25:                                               ; preds = %21
  call void @llvm.lifetime.start.p0(i64 8, ptr %10) #3
  %26 = load ptr, ptr %6, align 8
  %27 = call ptr @__cxa_begin_catch(ptr %26) #3
  store ptr %27, ptr %10, align 8
  call void @llvm.lifetime.start.p0(i64 8, ptr %11) #3
  %28 = load ptr, ptr %3, align 8, !tbaa !32
  store ptr %28, ptr %11, align 8, !tbaa !35
  %29 = load ptr, ptr %10, align 8, !tbaa !37
  %30 = load ptr, ptr %11, align 8, !tbaa !35
  %31 = getelementptr inbounds nuw %class.ParserTag, ptr %30, i32 0, i32 1
  %32 = invoke noundef nonnull align 8 dereferenceable(112) ptr @_ZN2mu11ParserErroraSERKS0_(ptr noundef nonnull align 8 dereferenceable(112) %31, ptr noundef nonnull align 8 dereferenceable(112) %29)
          to label %33 unwind label %83

33:                                               ; preds = %25
  %34 = load ptr, ptr %11, align 8, !tbaa !35
  %35 = getelementptr inbounds nuw %class.ParserTag, ptr %34, i32 0, i32 3
  store i8 1, ptr %35, align 8, !tbaa !39
  %36 = load ptr, ptr %11, align 8, !tbaa !35
  %37 = getelementptr inbounds nuw %class.ParserTag, ptr %36, i32 0, i32 2
  %38 = load ptr, ptr %37, align 8, !tbaa !46
  %39 = icmp ne ptr %38, null
  br i1 %39, label %40, label %87

40:                                               ; preds = %33
  %41 = load ptr, ptr %11, align 8, !tbaa !35
  %42 = getelementptr inbounds nuw %class.ParserTag, ptr %41, i32 0, i32 2
  %43 = load ptr, ptr %42, align 8, !tbaa !46
  %44 = load ptr, ptr %3, align 8, !tbaa !32
  invoke void %43(ptr noundef %44)
          to label %45 unwind label %83

45:                                               ; preds = %40
  br label %87

46:                                               ; preds = %21
  %47 = load ptr, ptr %6, align 8
  %48 = call ptr @__cxa_begin_catch(ptr %47) #3
  call void @llvm.lifetime.start.p0(i64 8, ptr %8) #3
  %49 = load ptr, ptr %3, align 8, !tbaa !32
  store ptr %49, ptr %8, align 8, !tbaa !35
  call void @llvm.lifetime.start.p0(i64 112, ptr %9) #3
  invoke void @_ZN2mu11ParserErrorC1ENS_11EErrorCodesE(ptr noundef nonnull align 8 dereferenceable(112) %9, i32 noundef 39)
          to label %50 unwind label %67

50:                                               ; preds = %46
  %51 = load ptr, ptr %8, align 8, !tbaa !35
  %52 = getelementptr inbounds nuw %class.ParserTag, ptr %51, i32 0, i32 1
  %53 = invoke noundef nonnull align 8 dereferenceable(112) ptr @_ZN2mu11ParserErroraSERKS0_(ptr noundef nonnull align 8 dereferenceable(112) %52, ptr noundef nonnull align 8 dereferenceable(112) %9)
          to label %54 unwind label %71

54:                                               ; preds = %50
  call void @_ZN2mu11ParserErrorD1Ev(ptr noundef nonnull align 8 dereferenceable(112) %9) #3
  call void @llvm.lifetime.end.p0(i64 112, ptr %9) #3
  %55 = load ptr, ptr %8, align 8, !tbaa !35
  %56 = getelementptr inbounds nuw %class.ParserTag, ptr %55, i32 0, i32 3
  store i8 1, ptr %56, align 8, !tbaa !39
  %57 = load ptr, ptr %8, align 8, !tbaa !35
  %58 = getelementptr inbounds nuw %class.ParserTag, ptr %57, i32 0, i32 2
  %59 = load ptr, ptr %58, align 8, !tbaa !46
  %60 = icmp ne ptr %59, null
  br i1 %60, label %61, label %80

61:                                               ; preds = %54
  %62 = load ptr, ptr %8, align 8, !tbaa !35
  %63 = getelementptr inbounds nuw %class.ParserTag, ptr %62, i32 0, i32 2
  %64 = load ptr, ptr %63, align 8, !tbaa !46
  %65 = load ptr, ptr %3, align 8, !tbaa !32
  invoke void %64(ptr noundef %65)
          to label %66 unwind label %76

66:                                               ; preds = %61
  br label %80

67:                                               ; preds = %46
  %68 = landingpad { ptr, i32 }
          cleanup
  %69 = extractvalue { ptr, i32 } %68, 0
  store ptr %69, ptr %6, align 8
  %70 = extractvalue { ptr, i32 } %68, 1
  store i32 %70, ptr %7, align 4
  br label %75

71:                                               ; preds = %50
  %72 = landingpad { ptr, i32 }
          cleanup
  %73 = extractvalue { ptr, i32 } %72, 0
  store ptr %73, ptr %6, align 8
  %74 = extractvalue { ptr, i32 } %72, 1
  store i32 %74, ptr %7, align 4
  call void @_ZN2mu11ParserErrorD1Ev(ptr noundef nonnull align 8 dereferenceable(112) %9) #3
  br label %75

75:                                               ; preds = %71, %67
  call void @llvm.lifetime.end.p0(i64 112, ptr %9) #3
  br label %81

76:                                               ; preds = %61
  %77 = landingpad { ptr, i32 }
          cleanup
  %78 = extractvalue { ptr, i32 } %77, 0
  store ptr %78, ptr %6, align 8
  %79 = extractvalue { ptr, i32 } %77, 1
  store i32 %79, ptr %7, align 4
  br label %81

80:                                               ; preds = %66, %54
  call void @llvm.lifetime.end.p0(i64 8, ptr %8) #3
  call void @__cxa_end_catch()
  br label %88

81:                                               ; preds = %76, %75
  call void @llvm.lifetime.end.p0(i64 8, ptr %8) #3
  invoke void @__cxa_end_catch()
          to label %82 unwind label %95

82:                                               ; preds = %81
  br label %90

83:                                               ; preds = %40, %25
  %84 = landingpad { ptr, i32 }
          cleanup
  %85 = extractvalue { ptr, i32 } %84, 0
  store ptr %85, ptr %6, align 8
  %86 = extractvalue { ptr, i32 } %84, 1
  store i32 %86, ptr %7, align 4
  call void @llvm.lifetime.end.p0(i64 8, ptr %11) #3
  invoke void @__cxa_end_catch()
          to label %89 unwind label %95

87:                                               ; preds = %45, %33
  call void @llvm.lifetime.end.p0(i64 8, ptr %11) #3
  call void @__cxa_end_catch()
  call void @llvm.lifetime.end.p0(i64 8, ptr %10) #3
  br label %88

88:                                               ; preds = %87, %80, %16
  ret void

89:                                               ; preds = %83
  call void @llvm.lifetime.end.p0(i64 8, ptr %10) #3
  br label %90

90:                                               ; preds = %89, %82
  %91 = load ptr, ptr %6, align 8
  %92 = load i32, ptr %7, align 4
  %93 = insertvalue { ptr, i32 } poison, ptr %91, 0
  %94 = insertvalue { ptr, i32 } %93, i32 %92, 1
  resume { ptr, i32 } %94

95:                                               ; preds = %83, %81
  %96 = landingpad { ptr, i32 }
          catch ptr null
  %97 = extractvalue { ptr, i32 } %96, 0
  call void @__clang_call_terminate(ptr %97) #19
  unreachable
}